; Function Attrs: mustprogress nofree norecurse nosync nounwind willreturn memory(none) uwtable
define dso_local noundef zeroext i1 @os_is_apple(i32 noundef %0) local_unnamed_addr #1 {
switch.edge:
  %1 = icmp ult i32 %0, 29
  %switch.cast = trunc i32 %0 to i29
  %switch.downshift = lshr i29 -134215552, %switch.cast
  %switch.masked = trunc i29 %switch.downshift to i1
  %2 = select i1 %1, i1 %switch.masked, i1 false
  ret i1 %2
}